; ModuleID = '31/1189.c'
source_filename = "31/1189.c"
target datalayout = "e-m:e-p270:32:32-p271:32:32-p272:64:64-i64:64-f80:128-n8:16:32:64-S128"
target triple = "x86_64-pc-linux-gnu"

%struct.Student = type { [20 x i8], [20 x i8], i8, i32, [20 x i8], [20 x i8], %struct.Student* }

@.str = private unnamed_addr constant [3 x i8] c"%s\00", align 1
@.str.1 = private unnamed_addr constant [15 x i8] c"%s %c %d %s %s\00", align 1
@.str.2 = private unnamed_addr constant [19 x i8] c"%s %s %c %d %s %s\0A\00", align 1

; Function Attrs: noinline nounwind uwtable
define dso_local %struct.Student* @creat() #0 {
  %1 = alloca i32, align 4
  %2 = alloca %struct.Student*, align 8
  %3 = alloca %struct.Student*, align 8
  %4 = alloca %struct.Student*, align 8
  %5 = call noalias i8* @malloc(i64 100) #3
  %6 = bitcast i8* %5 to %struct.Student*
  store %struct.Student* %6, %struct.Student** %3, align 8
  %7 = load %struct.Student*, %struct.Student** %3, align 8
  %8 = getelementptr inbounds %struct.Student, %struct.Student* %7, i32 0, i32 0
  %9 = getelementptr inbounds [20 x i8], [20 x i8]* %8, i64 0, i64 0
  %10 = call i32 (i8*, ...) @__isoc99_scanf(i8* getelementptr inbounds ([3 x i8], [3 x i8]* @.str, i64 0, i64 0), i8* %9)
  store i32 0, i32* %1, align 4
  br label %11

11:                                               ; preds = %51, %0
  %12 = load %struct.Student*, %struct.Student** %3, align 8
  %13 = getelementptr inbounds %struct.Student, %struct.Student* %12, i32 0, i32 0
  %14 = getelementptr inbounds [20 x i8], [20 x i8]* %13, i64 0, i64 0
  %15 = load i8, i8* %14, align 8
  %16 = sext i8 %15 to i32
  %17 = icmp ne i32 %16, 101
  br i1 %17, label %18, label %54

18:                                               ; preds = %11
  %19 = load %struct.Student*, %struct.Student** %3, align 8
  store %struct.Student* %19, %struct.Student** %2, align 8
  %20 = load %struct.Student*, %struct.Student** %3, align 8
  %21 = getelementptr inbounds %struct.Student, %struct.Student* %20, i32 0, i32 1
  %22 = getelementptr inbounds [20 x i8], [20 x i8]* %21, i64 0, i64 0
  %23 = load %struct.Student*, %struct.Student** %3, align 8
  %24 = getelementptr inbounds %struct.Student, %struct.Student* %23, i32 0, i32 2
  %25 = load %struct.Student*, %struct.Student** %3, align 8
  %26 = getelementptr inbounds %struct.Student, %struct.Student* %25, i32 0, i32 3
  %27 = load %struct.Student*, %struct.Student** %3, align 8
  %28 = getelementptr inbounds %struct.Student, %struct.Student* %27, i32 0, i32 4
  %29 = getelementptr inbounds [20 x i8], [20 x i8]* %28, i64 0, i64 0
  %30 = load %struct.Student*, %struct.Student** %3, align 8
  %31 = getelementptr inbounds %struct.Student, %struct.Student* %30, i32 0, i32 5
  %32 = getelementptr inbounds [20 x i8], [20 x i8]* %31, i64 0, i64 0
  %33 = call i32 (i8*, ...) @__isoc99_scanf(i8* getelementptr inbounds ([15 x i8], [15 x i8]* @.str.1, i64 0, i64 0), i8* %22, i8* %24, i32* %26, i8* %29, i8* %32)
  %34 = load i32, i32* %1, align 4
  %35 = icmp eq i32 %34, 0
  br i1 %35, label %36, label %39

36:                                               ; preds = %18
  %37 = load %struct.Student*, %struct.Student** %3, align 8
  %38 = getelementptr inbounds %struct.Student, %struct.Student* %37, i32 0, i32 6
  store %struct.Student* null, %struct.Student** %38, align 8
  br label %43

39:                                               ; preds = %18
  %40 = load %struct.Student*, %struct.Student** %4, align 8
  %41 = load %struct.Student*, %struct.Student** %3, align 8
  %42 = getelementptr inbounds %struct.Student, %struct.Student* %41, i32 0, i32 6
  store %struct.Student* %40, %struct.Student** %42, align 8
  br label %43

43:                                               ; preds = %39, %36
  %44 = load %struct.Student*, %struct.Student** %3, align 8
  store %struct.Student* %44, %struct.Student** %4, align 8
  %45 = call noalias i8* @malloc(i64 100) #3
  %46 = bitcast i8* %45 to %struct.Student*
  store %struct.Student* %46, %struct.Student** %3, align 8
  %47 = load %struct.Student*, %struct.Student** %3, align 8
  %48 = getelementptr inbounds %struct.Student, %struct.Student* %47, i32 0, i32 0
  %49 = getelementptr inbounds [20 x i8], [20 x i8]* %48, i64 0, i64 0
  %50 = call i32 (i8*, ...) @__isoc99_scanf(i8* getelementptr inbounds ([3 x i8], [3 x i8]* @.str, i64 0, i64 0), i8* %49)
  br label %51

51:                                               ; preds = %43
  %52 = load i32, i32* %1, align 4
  %53 = add nsw i32 %52, 1
  store i32 %53, i32* %1, align 4
  br label %11

54:                                               ; preds = %11
  %55 = load %struct.Student*, %struct.Student** %2, align 8
  ret %struct.Student* %55
}

; Function Attrs: nounwind
declare dso_local noalias i8* @malloc(i64) #1

declare dso_local i32 @__isoc99_scanf(i8*, ...) #2

; Function Attrs: noinline nounwind uwtable
define dso_local i32 @main() #0 {
  %1 = alloca i32, align 4
  %2 = alloca %struct.Student*, align 8
  %3 = alloca %struct.Student*, align 8
  store i32 0, i32* %1, align 4
  %4 = call %struct.Student* @creat()
  store %struct.Student* %4, %struct.Student** %2, align 8
  %5 = load %struct.Student*, %struct.Student** %2, align 8
  store %struct.Student* %5, %struct.Student** %3, align 8
  br label %6

6:                                                ; preds = %9, %0
  %7 = load %struct.Student*, %struct.Student** %3, align 8
  %8 = icmp ne %struct.Student* %7, null
  br i1 %8, label %9, label %33

9:                                                ; preds = %6
  %10 = load %struct.Student*, %struct.Student** %3, align 8
  %11 = getelementptr inbounds %struct.Student, %struct.Student* %10, i32 0, i32 0
  %12 = getelementptr inbounds [20 x i8], [20 x i8]* %11, i64 0, i64 0
  %13 = load %struct.Student*, %struct.Student** %3, align 8
  %14 = getelementptr inbounds %struct.Student, %struct.Student* %13, i32 0, i32 1
  %15 = getelementptr inbounds [20 x i8], [20 x i8]* %14, i64 0, i64 0
  %16 = load %struct.Student*, %struct.Student** %3, align 8
  %17 = getelementptr inbounds %struct.Student, %struct.Student* %16, i32 0, i32 2
  %18 = load i8, i8* %17, align 8
  %19 = sext i8 %18 to i32
  %20 = load %struct.Student*, %struct.Student** %3, align 8
  %21 = getelementptr inbounds %struct.Student, %struct.Student* %20, i32 0, i32 3
  %22 = load i32, i32* %21, align 4
  %23 = load %struct.Student*, %struct.Student** %3, align 8
  %24 = getelementptr inbounds %struct.Student, %struct.Student* %23, i32 0, i32 4
  %25 = getelementptr inbounds [20 x i8], [20 x i8]* %24, i64 0, i64 0
  %26 = load %struct.Student*, %struct.Student** %3, align 8
  %27 = getelementptr inbounds %struct.Student, %struct.Student* %26, i32 0, i32 5
  %28 = getelementptr inbounds [20 x i8], [20 x i8]* %27, i64 0, i64 0
  %29 = call i32 (i8*, ...) @printf(i8* getelementptr inbounds ([19 x i8], [19 x i8]* @.str.2, i64 0, i64 0), i8* %12, i8* %15, i32 %19, i32 %22, i8* %25, i8* %28)
  %30 = load %struct.Student*, %struct.Student** %3, align 8
  %31 = getelementptr inbounds %struct.Student, %struct.Student* %30, i32 0, i32 6
  %32 = load %struct.Student*, %struct.Student** %31, align 8
  store %struct.Student* %32, %struct.Student** %3, align 8
  br label %6

33:                                               ; preds = %6
  ret i32 0
}

declare dso_local i32 @printf(i8*, ...) #2


!llvm.module.flags = !{!0}
!llvm.ident = !{!1}

!0 = !{i32 1, !"wchar_size", i32 4}
!1 = !{!"clang version 10.0.0-4ubuntu1 "}
